(dp1
S'sensitivity_flux_error'
p2
cnumpy.core.multiarray
scalar
p3
(cnumpy
dtype
p4
(S'f8'
I0
I1
tRp5
(I3
S'<'
NNNI-1
I-1
I0
tbS'S8\xf4\xdf\x14\x1c\x17='
tRp6
sS'sensitivity_flux'
p7
g3
(g5
S'\xf1+\xdb\xee\xb3\xa0I='
tRp8
sS'discovery_flux'
p9
g3
(g5
S'\x7f\xde\x83\x03\xa5\xec]='
tRp10
sS'discovery_flux_error'
p11
g3
(g5
S'r&\xaf\x12\xad\x8b\x10='
tRp12
s.