(dp1
S'sensitivity_flux_error'
p2
cnumpy.core.multiarray
scalar
p3
(cnumpy
dtype
p4
(S'f8'
I0
I1
tRp5
(I3
S'<'
NNNI-1
I-1
I0
tbS'r\xa6\xc3\xecu\xf3\xb0<'
tRp6
sS'sensitivity_flux'
p7
g3
(g5
S'\x070#\xc5\x86\x07\xe8<'
tRp8
sS'discovery_flux'
p9
g3
(g5
S'm\x03\x7fJ\x8aW\xf6<'
tRp10
sS'discovery_flux_error'
p11
g3
(g5
S'g\x1c\x13$i\x03\xab<'
tRp12
s.