(dp1
S'sensitivity_flux_error'
p2
cnumpy.core.multiarray
scalar
p3
(cnumpy
dtype
p4
(S'f8'
I0
I1
tRp5
(I3
S'<'
NNNI-1
I-1
I0
tbS'q\x8c\x87\x97;\x10\xb2<'
tRp6
sS'sensitivity_flux'
p7
g3
(g5
S'\x9a\xfc\xf6z\xacy\xe7<'
tRp8
sS'discovery_flux'
p9
g3
(g5
S'\xb9\x97\xdf]\xcbw\xfd<'
tRp10
sS'discovery_flux_error'
p11
g3
(g5
S'*K=DX\xf9\xae<'
tRp12
s.