(dp1
S'sensitivity_flux_error'
p2
cnumpy.core.multiarray
scalar
p3
(cnumpy
dtype
p4
(S'f8'
I0
I1
tRp5
(I3
S'<'
NNNI-1
I-1
I0
tbS'Ln\xed\xa2n\xbc\xb1<'
tRp6
sS'sensitivity_flux'
p7
g3
(g5
S'\\\x83\x9ca \x88\xea<'
tRp8
sS'discovery_flux'
p9
g3
(g5
S"Q+:\x1c'\xee\xfd<"
tRp10
sS'discovery_flux_error'
p11
g3
(g5
S'"\x1e\xddTW_\xb1<'
tRp12
s.