(dp1
S'sensitivity_flux_error'
p2
cnumpy.core.multiarray
scalar
p3
(cnumpy
dtype
p4
(S'f8'
I0
I1
tRp5
(I3
S'<'
NNNI-1
I-1
I0
tbS'\xf5\xeb\xf2\xda\x012\xb1<'
tRp6
sS'sensitivity_flux'
p7
g3
(g5
S')AN\xd9\xdf\t\xe8<'
tRp8
sS'discovery_flux'
p9
g3
(g5
S'\x98\xc7\x9d\xb4`9\xf8<'
tRp10
sS'discovery_flux_error'
p11
g3
(g5
S'|y\xfb\xe5\xc9\x15\xb0<'
tRp12
s.