(dp1
S'sensitivity_flux_error'
p2
cnumpy.core.multiarray
scalar
p3
(cnumpy
dtype
p4
(S'f8'
I0
I1
tRp5
(I3
S'<'
NNNI-1
I-1
I0
tbS'i\xe0\xd8\x99\xb7N\xeb<'
tRp6
sS'sensitivity_flux'
p7
g3
(g5
S'v\xb4\xae\xe6ND!='
tRp8
sS'discovery_flux'
p9
g3
(g5
S'\xe1\xf3\xf8\xeb\x1a\xbc3='
tRp10
sS'discovery_flux_error'
p11
g3
(g5
S"'<\xcd\xbf.F\xe7<"
tRp12
s.