(dp1
S'sensitivity_flux_error'
p2
cnumpy.core.multiarray
scalar
p3
(cnumpy
dtype
p4
(S'f8'
I0
I1
tRp5
(I3
S'<'
NNNI-1
I-1
I0
tbS'\xa1%\xa0\x0cb\xe3\xb3<'
tRp6
sS'sensitivity_flux'
p7
g3
(g5
S'\xa8\xd7\xfb \x1aM\xe8<'
tRp8
sS'discovery_flux'
p9
g3
(g5
S'\xa3&~~~\xac\xfc<'
tRp10
sS'discovery_flux_error'
p11
g3
(g5
S"\xe1\x87O'\x195\xad<"
tRp12
s.