(dp1
S'sensitivity_flux_error'
p2
cnumpy.core.multiarray
scalar
p3
(cnumpy
dtype
p4
(S'f8'
I0
I1
tRp5
(I3
S'<'
NNNI-1
I-1
I0
tbS'\xce\xbf\x80\x93\x89V\xb3<'
tRp6
sS'sensitivity_flux'
p7
g3
(g5
S'\x19\x1c\xd3\x14]\x08\xe6<'
tRp8
sS'discovery_flux'
p9
g3
(g5
S'\xf9FA\x18;\x94\xfd<'
tRp10
sS'discovery_flux_error'
p11
g3
(g5
S'\nM\x9b\x86\x0b\xa8\xad<'
tRp12
s.