(dp1
S'sensitivity_flux_error'
p2
cnumpy.core.multiarray
scalar
p3
(cnumpy
dtype
p4
(S'f8'
I0
I1
tRp5
(I3
S'<'
NNNI-1
I-1
I0
tbS'\xc5!\xd0>"\xe6\xb1<'
tRp6
sS'sensitivity_flux'
p7
g3
(g5
S'\xcaM\x9e\x9e\xed$\xe7<'
tRp8
sS'discovery_flux'
p9
g3
(g5
S"\x87R'\xa7\xc7\xa8\xfa<"
tRp10
sS'discovery_flux_error'
p11
g3
(g5
S'\x8a\x96\x80\x81\x99\xf3\xaa<'
tRp12
s.