(dp1
S'sensitivity_flux_error'
p2
cnumpy.core.multiarray
scalar
p3
(cnumpy
dtype
p4
(S'f8'
I0
I1
tRp5
(I3
S'<'
NNNI-1
I-1
I0
tbS'm\x85>\xdb\x85?\xc0<'
tRp6
sS'sensitivity_flux'
p7
g3
(g5
S'88\x1b\xf5\x03}\xf3<'
tRp8
sS'discovery_flux'
p9
g3
(g5
S'\x14V\x7f\x0b\x8f&\x0b='
tRp10
sS'discovery_flux_error'
p11
g3
(g5
S'>\xad7]\xc3\xef\xb7<'
tRp12
s.