(dp1
S'sensitivity_flux_error'
p2
cnumpy.core.multiarray
scalar
p3
(cnumpy
dtype
p4
(S'f8'
I0
I1
tRp5
(I3
S'<'
NNNI-1
I-1
I0
tbS'\x80\x80\xcd\xbco\x81\xc6<'
tRp6
sS'sensitivity_flux'
p7
g3
(g5
S'\x14\xddr\x9dp\xd4\xf7<'
tRp8
sS'discovery_flux'
p9
g3
(g5
S'\x0bu\xb5p[\x00\n='
tRp10
sS'discovery_flux_error'
p11
g3
(g5
S'|\x7fu#\x8bD\xc1<'
tRp12
s.