(dp1
S'sensitivity_flux_error'
p2
cnumpy.core.multiarray
scalar
p3
(cnumpy
dtype
p4
(S'f8'
I0
I1
tRp5
(I3
S'<'
NNNI-1
I-1
I0
tbS'+>y\xb5p\x06\xb5<'
tRp6
sS'sensitivity_flux'
p7
g3
(g5
S'\x06\xf8\x9f\x1d_f\xe7<'
tRp8
sS'discovery_flux'
p9
g3
(g5
S'\xd1\xd1Y \xe9\xbb\xf7<'
tRp10
sS'discovery_flux_error'
p11
g3
(g5
S'\r1\xa3|\xc9\xb5\xaa<'
tRp12
s.