(dp1
S'sensitivity_flux_error'
p2
cnumpy.core.multiarray
scalar
p3
(cnumpy
dtype
p4
(S'f8'
I0
I1
tRp5
(I3
S'<'
NNNI-1
I-1
I0
tbS'\x1f\xa9&\xa6+\xbd\xb1<'
tRp6
sS'sensitivity_flux'
p7
g3
(g5
S'\xf4\xe2\xa9\xef!\x1c\xe4<'
tRp8
sS'discovery_flux'
p9
g3
(g5
S'\xe8ruv4\x0c\xfc<'
tRp10
sS'discovery_flux_error'
p11
g3
(g5
S'F\xef]\x14\xb8\xa4\xaf<'
tRp12
s.