(dp1
S'sensitivity_flux_error'
p2
cnumpy.core.multiarray
scalar
p3
(cnumpy
dtype
p4
(S'f8'
I0
I1
tRp5
(I3
S'<'
NNNI-1
I-1
I0
tbS'\xd05\xe3\xa8\x07\x02\x11='
tRp6
sS'sensitivity_flux'
p7
g3
(g5
S'0\x15\x1cFS\x9eE='
tRp8
sS'discovery_flux'
p9
g3
(g5
S'/\x0eOC\x89\x01V='
tRp10
sS'discovery_flux_error'
p11
g3
(g5
S' R\x97{w\xa9\n='
tRp12
s.