(dp1
S'sensitivity_flux_error'
p2
cnumpy.core.multiarray
scalar
p3
(cnumpy
dtype
p4
(S'f8'
I0
I1
tRp5
(I3
S'<'
NNNI-1
I-1
I0
tbS'\xb8\xc5,\xcf\xc9O\x1d='
tRp6
sS'sensitivity_flux'
p7
g3
(g5
S'\xc9\x96\xb1\xfaX\x91O='
tRp8
sS'discovery_flux'
p9
g3
(g5
S'8\x1f\xedrM$b='
tRp10
sS'discovery_flux_error'
p11
g3
(g5
S'P\xf9\xaa\xe2ra\x14='
tRp12
s.