(dp1
S'sensitivity_flux_error'
p2
cnumpy.core.multiarray
scalar
p3
(cnumpy
dtype
p4
(S'f8'
I0
I1
tRp5
(I3
S'<'
NNNI-1
I-1
I0
tbS'.\x94f;\x87\x0f\xb1<'
tRp6
sS'sensitivity_flux'
p7
g3
(g5
S'\xab\x8b\x03&\xf3\xad\xe7<'
tRp8
sS'discovery_flux'
p9
g3
(g5
S"\x08\xed'<r.\xf9<"
tRp10
sS'discovery_flux_error'
p11
g3
(g5
S'\x15k\x88\xf9\x87\xbf\xae<'
tRp12
s.