(dp1
S'sensitivity_flux_error'
p2
cnumpy.core.multiarray
scalar
p3
(cnumpy
dtype
p4
(S'f8'
I0
I1
tRp5
(I3
S'<'
NNNI-1
I-1
I0
tbS'q\xc6\xfdjq#\xfe<'
tRp6
sS'sensitivity_flux'
p7
g3
(g5
S'/\x83\xd5\xe9\xd3\xbd3='
tRp8
sS'discovery_flux'
p9
g3
(g5
S'\xbf?\xc9`/\x07H='
tRp10
sS'discovery_flux_error'
p11
g3
(g5
S'4\x1e\xe8Y\xc5\xcf\xfb<'
tRp12
s.