(dp1
S'sensitivity_flux_error'
p2
cnumpy.core.multiarray
scalar
p3
(cnumpy
dtype
p4
(S'f8'
I0
I1
tRp5
(I3
S'<'
NNNI-1
I-1
I0
tbS'\xf1/`\xe5\xc9\xef\xb1<'
tRp6
sS'sensitivity_flux'
p7
g3
(g5
S'Y\x162\x9dI2\xe5<'
tRp8
sS'discovery_flux'
p9
g3
(g5
S'\xdf\nroQ\xce\xf6<'
tRp10
sS'discovery_flux_error'
p11
g3
(g5
S'\x91\xb2\xe0V\x13\xd8\xaa<'
tRp12
s.