(dp1
S'sensitivity_flux_error'
p2
cnumpy.core.multiarray
scalar
p3
(cnumpy
dtype
p4
(S'f8'
I0
I1
tRp5
(I3
S'<'
NNNI-1
I-1
I0
tbS'~\x16c\xc8{\xa2\xb1<'
tRp6
sS'sensitivity_flux'
p7
g3
(g5
S'\xa5LM\xccfW\xe6<'
tRp8
sS'discovery_flux'
p9
g3
(g5
S'\n3\xdb,7H\xf8<'
tRp10
sS'discovery_flux_error'
p11
g3
(g5
S'\xf3\xf4\x0f\x9e\xcdq\xad<'
tRp12
s.