(dp1
S'sensitivity_flux_error'
p2
cnumpy.core.multiarray
scalar
p3
(cnumpy
dtype
p4
(S'f8'
I0
I1
tRp5
(I3
S'<'
NNNI-1
I-1
I0
tbS'\xa48\x94\x06 \xd0\n='
tRp6
sS'sensitivity_flux'
p7
g3
(g5
S'\x19\xe3\x1aG{\x03>='
tRp8
sS'discovery_flux'
p9
g3
(g5
S'\xb6\xbf\x84\xc6@9P='
tRp10
sS'discovery_flux_error'
p11
g3
(g5
S'?\xd2\x1dD\xccR\x03='
tRp12
s.