(dp1
S'sensitivity_flux_error'
p2
cnumpy.core.multiarray
scalar
p3
(cnumpy
dtype
p4
(S'f8'
I0
I1
tRp5
(I3
S'<'
NNNI-1
I-1
I0
tbS'l\xf4\x07y]T\xe7<'
tRp6
sS'sensitivity_flux'
p7
g3
(g5
S'\xc6\xf5@\xb4wk\x1a='
tRp8
sS'discovery_flux'
p9
g3
(g5
S'\x16,\xd6\x00\xd2h+='
tRp10
sS'discovery_flux_error'
p11
g3
(g5
S'\xeb\xf0\xe8\x9e\xa6"\xe5<'
tRp12
s.