(dp1
S'sensitivity_flux_error'
p2
cnumpy.core.multiarray
scalar
p3
(cnumpy
dtype
p4
(S'f8'
I0
I1
tRp5
(I3
S'<'
NNNI-1
I-1
I0
tbS'vu>p\xfaB\x1f='
tRp6
sS'sensitivity_flux'
p7
g3
(g5
S'\xd2\xeeGQ\x96_Q='
tRp8
sS'discovery_flux'
p9
g3
(g5
S'\x04\x9c1\xbc#\xe9b='
tRp10
sS'discovery_flux_error'
p11
g3
(g5
S'nBD^J\x00\x17='
tRp12
s.