(dp1
S'sensitivity_flux_error'
p2
cnumpy.core.multiarray
scalar
p3
(cnumpy
dtype
p4
(S'f8'
I0
I1
tRp5
(I3
S'<'
NNNI-1
I-1
I0
tbS'\xe5\xfd\xcb\x9cW)\xfa<'
tRp6
sS'sensitivity_flux'
p7
g3
(g5
S'[\xf2\x0b\xba\xd3e*='
tRp8
sS'discovery_flux'
p9
g3
(g5
S'\xb2\xa3\xd0\x1cl\x9b@='
tRp10
sS'discovery_flux_error'
p11
g3
(g5
S'g\xc1b\x1c\xf4\xe7\xf6<'
tRp12
s.