(dp1
S'sensitivity_flux_error'
p2
cnumpy.core.multiarray
scalar
p3
(cnumpy
dtype
p4
(S'f8'
I0
I1
tRp5
(I3
S'<'
NNNI-1
I-1
I0
tbS'\x96\xf4\xc2\xfd\xc99\xb8<'
tRp6
sS'sensitivity_flux'
p7
g3
(g5
S'A\xcb0\xf6\x952\xed<'
tRp8
sS'discovery_flux'
p9
g3
(g5
S'U=uH~\xa7\x00='
tRp10
sS'discovery_flux_error'
p11
g3
(g5
S'\xe6\xfc\x9a\xfa \x8e\xb2<'
tRp12
s.