(dp1
S'sensitivity_flux_error'
p2
cnumpy.core.multiarray
scalar
p3
(cnumpy
dtype
p4
(S'f8'
I0
I1
tRp5
(I3
S'<'
NNNI-1
I-1
I0
tbS'X^\xac\xf1B\x00\xd3<'
tRp6
sS'sensitivity_flux'
p7
g3
(g5
S'\x14nu?3\xdc\x11='
tRp8
sS'discovery_flux'
p9
g3
(g5
S'\xa8\r\xd3\x8b\x82= ='
tRp10
sS'discovery_flux_error'
p11
g3
(g5
S'Y\x14\xfc\x92\xe75\xd3<'
tRp12
s.