(dp1
S'sensitivity_flux_error'
p2
cnumpy.core.multiarray
scalar
p3
(cnumpy
dtype
p4
(S'f8'
I0
I1
tRp5
(I3
S'<'
NNNI-1
I-1
I0
tbS'\x92\x08\xa0)\xa3*\xb1<'
tRp6
sS'sensitivity_flux'
p7
g3
(g5
S'\xa2\x8a\xfa\x12\xd5\x95\xe3<'
tRp8
sS'discovery_flux'
p9
g3
(g5
S'`\xd4y\x06\xc5x\xfa<'
tRp10
sS'discovery_flux_error'
p11
g3
(g5
S'\x03\xcfE\\\xae5\xae<'
tRp12
s.