(dp1
S'sensitivity_flux_error'
p2
cnumpy.core.multiarray
scalar
p3
(cnumpy
dtype
p4
(S'f8'
I0
I1
tRp5
(I3
S'<'
NNNI-1
I-1
I0
tbS'\xccZ\r\xc4\xe1?\xb3<'
tRp6
sS'sensitivity_flux'
p7
g3
(g5
S'\xa1\x05r\x9b\x82\xbd\xe5<'
tRp8
sS'discovery_flux'
p9
g3
(g5
S'\xf0?}\xf0\x01\xa3\xf6<'
tRp10
sS'discovery_flux_error'
p11
g3
(g5
S'\x89\x0cm\xd6\x85\xc4\xac<'
tRp12
s.