(dp1
S'sensitivity_flux_error'
p2
cnumpy.core.multiarray
scalar
p3
(cnumpy
dtype
p4
(S'f8'
I0
I1
tRp5
(I3
S'<'
NNNI-1
I-1
I0
tbS'l\xad\x88\x8b\x9d\xd6\xf4<'
tRp6
sS'sensitivity_flux'
p7
g3
(g5
S'3:\xfe\x7f\xa3\x9f)='
tRp8
sS'discovery_flux'
p9
g3
(g5
S'dS\xf3\x1f\xaa\x04?='
tRp10
sS'discovery_flux_error'
p11
g3
(g5
S'!\n\xab\xd9[\xb8\xf0<'
tRp12
s.