(dp1
S'sensitivity_flux_error'
p2
cnumpy.core.multiarray
scalar
p3
(cnumpy
dtype
p4
(S'f8'
I0
I1
tRp5
(I3
S'<'
NNNI-1
I-1
I0
tbS'\xb7\xc9\x96\xc8\x02\xb6\xb2<'
tRp6
sS'sensitivity_flux'
p7
g3
(g5
S"x\x88\xb9G\x08'\xe6<"
tRp8
sS'discovery_flux'
p9
g3
(g5
S'N7,C\x03S\xfe<'
tRp10
sS'discovery_flux_error'
p11
g3
(g5
S'A\xfe\xaa\xe5d\xfa\xb0<'
tRp12
s.