(dp1
S'sensitivity_flux_error'
p2
cnumpy.core.multiarray
scalar
p3
(cnumpy
dtype
p4
(S'f8'
I0
I1
tRp5
(I3
S'<'
NNNI-1
I-1
I0
tbS'\x00\x88\\\x8c\xec\x83\xf3<'
tRp6
sS'sensitivity_flux'
p7
g3
(g5
S'\xb1\xd5\x82\xeb\x04\x93%='
tRp8
sS'discovery_flux'
p9
g3
(g5
S'\xde\xf8-\x9c/A7='
tRp10
sS'discovery_flux_error'
p11
g3
(g5
S'\xe1\x9b\xb0\x06:\xf2\xef<'
tRp12
s.