(dp1
S'sensitivity_flux_error'
p2
cnumpy.core.multiarray
scalar
p3
(cnumpy
dtype
p4
(S'f8'
I0
I1
tRp5
(I3
S'<'
NNNI-1
I-1
I0
tbS'\xdf1\x0b\x16[\xfd\xb3<'
tRp6
sS'sensitivity_flux'
p7
g3
(g5
S'\xc6\xe2\xecEa\x9b\xe7<'
tRp8
sS'discovery_flux'
p9
g3
(g5
S'6IG\xb1\x1c6\xfc<'
tRp10
sS'discovery_flux_error'
p11
g3
(g5
S'\xa0x\x96\x03\xfen\xae<'
tRp12
s.