(dp1
S'sensitivity_flux_error'
p2
cnumpy.core.multiarray
scalar
p3
(cnumpy
dtype
p4
(S'f8'
I0
I1
tRp5
(I3
S'<'
NNNI-1
I-1
I0
tbS'\xd5\xc8\x16\xab3q\x1b='
tRp6
sS'sensitivity_flux'
p7
g3
(g5
S'\xee"su\xaf\xccO='
tRp8
sS'discovery_flux'
p9
g3
(g5
S'g\xf9\xeb_\xdd(d='
tRp10
sS'discovery_flux_error'
p11
g3
(g5
S'@\\\x99\xb0\x1d\x11\x1a='
tRp12
s.