(dp1
S'sensitivity_flux_error'
p2
cnumpy.core.multiarray
scalar
p3
(cnumpy
dtype
p4
(S'f8'
I0
I1
tRp5
(I3
S'<'
NNNI-1
I-1
I0
tbS"\xf5\x8e'w\xc8\xb3\x1a="
tRp6
sS'sensitivity_flux'
p7
g3
(g5
S'/S[\xf0kjJ='
tRp8
sS'discovery_flux'
p9
g3
(g5
S'\x1f\xd2~P\x95R`='
tRp10
sS'discovery_flux_error'
p11
g3
(g5
S'\xf0t\xf0=\x188\x15='
tRp12
s.