(dp1
S'sensitivity_flux_error'
p2
cnumpy.core.multiarray
scalar
p3
(cnumpy
dtype
p4
(S'f8'
I0
I1
tRp5
(I3
S'<'
NNNI-1
I-1
I0
tbS'\xb6\xe6.\xd5\x8a0\x1d='
tRp6
sS'sensitivity_flux'
p7
g3
(g5
S'\xe0\xea\x0f\\\xb1\x9fO='
tRp8
sS'discovery_flux'
p9
g3
(g5
S';\x98\xdc\xbb\xc1\xf0f='
tRp10
sS'discovery_flux_error'
p11
g3
(g5
S'\xf4jI\xc9\xab9\x1c='
tRp12
s.