(dp1
S'sensitivity_flux_error'
p2
cnumpy.core.multiarray
scalar
p3
(cnumpy
dtype
p4
(S'f8'
I0
I1
tRp5
(I3
S'<'
NNNI-1
I-1
I0
tbS'\x11\xf3-\xc8.O\xe3<'
tRp6
sS'sensitivity_flux'
p7
g3
(g5
S'\x89.\x18\xbc\xf4w\x16='
tRp8
sS'discovery_flux'
p9
g3
(g5
S'T\x13A\xc4n\xfd(='
tRp10
sS'discovery_flux_error'
p11
g3
(g5
S'\xc9\x1b\xbb\xd3\xc5B\xe0<'
tRp12
s.