(dp1
S'sensitivity_flux_error'
p2
cnumpy.core.multiarray
scalar
p3
(cnumpy
dtype
p4
(S'f8'
I0
I1
tRp5
(I3
S'<'
NNNI-1
I-1
I0
tbS'0\xbe\x14\xe6\xda\xa6\x15='
tRp6
sS'sensitivity_flux'
p7
g3
(g5
S'\xa6\xcc\xb3\x90Z\xb2G='
tRp8
sS'discovery_flux'
p9
g3
(g5
S'c"c\xde4\x14Z='
tRp10
sS'discovery_flux_error'
p11
g3
(g5
S'n\x9aLF\x18J\x0f='
tRp12
s.