(dp1
S'sensitivity_flux_error'
p2
cnumpy.core.multiarray
scalar
p3
(cnumpy
dtype
p4
(S'f8'
I0
I1
tRp5
(I3
S'<'
NNNI-1
I-1
I0
tbS'\xe6\xab\xbel\xe4!\xae<'
tRp6
sS'sensitivity_flux'
p7
g3
(g5
S'\x16\xe0\xff$\n\x8e\xe4<'
tRp8
sS'discovery_flux'
p9
g3
(g5
S'\x80\x9b7X9P\xfb<'
tRp10
sS'discovery_flux_error'
p11
g3
(g5
S'\xec\x1d\x11A\xb2=\xac<'
tRp12
s.