(dp1
S'sensitivity_flux_error'
p2
cnumpy.core.multiarray
scalar
p3
(cnumpy
dtype
p4
(S'f8'
I0
I1
tRp5
(I3
S'<'
NNNI-1
I-1
I0
tbS'\xe0\x10H\x1dih\xd8<'
tRp6
sS'sensitivity_flux'
p7
g3
(g5
S'\xa3U\x1a\xa7.m\r='
tRp8
sS'discovery_flux'
p9
g3
(g5
S'\x14\xac\xd4\x99\xa5x\x1e='
tRp10
sS'discovery_flux_error'
p11
g3
(g5
S'\xbe\xad\x05cA\x10\xd6<'
tRp12
s.