(dp1
S'sensitivity_flux_error'
p2
cnumpy.core.multiarray
scalar
p3
(cnumpy
dtype
p4
(S'f8'
I0
I1
tRp5
(I3
S'<'
NNNI-1
I-1
I0
tbS'\xb5\xee\x89]\x8a\x05\x11='
tRp6
sS'sensitivity_flux'
p7
g3
(g5
S'R8\x98P{\xe0B='
tRp8
sS'discovery_flux'
p9
g3
(g5
S'k\x97Qh\x15\xe4S='
tRp10
sS'discovery_flux_error'
p11
g3
(g5
S'}-\x9a\xd2\xafa\x0c='
tRp12
s.