(dp1
S'sensitivity_flux_error'
p2
cnumpy.core.multiarray
scalar
p3
(cnumpy
dtype
p4
(S'f8'
I0
I1
tRp5
(I3
S'<'
NNNI-1
I-1
I0
tbS'\xa6\xef\x1b\xccMF\x1d='
tRp6
sS'sensitivity_flux'
p7
g3
(g5
S'\x8f\xa4\x90\x1a\x80\xb5Q='
tRp8
sS'discovery_flux'
p9
g3
(g5
S'\x9c\x0c&\xf0\xcd\x0f_='
tRp10
sS'discovery_flux_error'
p11
g3
(g5
S'^\xf7\x92\xc8\xd2@\x17='
tRp12
s.