(dp1
S'sensitivity_flux_error'
p2
cnumpy.core.multiarray
scalar
p3
(cnumpy
dtype
p4
(S'f8'
I0
I1
tRp5
(I3
S'<'
NNNI-1
I-1
I0
tbS'\xd3\xcd\xa1Va\xc6\x11='
tRp6
sS'sensitivity_flux'
p7
g3
(g5
S'\x16@\xcd\xa0\x12 D='
tRp8
sS'discovery_flux'
p9
g3
(g5
S'\xe5j\xfbq\x83vZ='
tRp10
sS'discovery_flux_error'
p11
g3
(g5
S'l\xe7UU2\x93\x0b='
tRp12
s.