(dp1
S'sensitivity_flux_error'
p2
cnumpy.core.multiarray
scalar
p3
(cnumpy
dtype
p4
(S'f8'
I0
I1
tRp5
(I3
S'<'
NNNI-1
I-1
I0
tbS'\x89\x0cd$\xc9Y\xb2<'
tRp6
sS'sensitivity_flux'
p7
g3
(g5
S'\xb4vD\xa53F\xe5<'
tRp8
sS'discovery_flux'
p9
g3
(g5
S'\x93\xad\xffQnb\xf7<'
tRp10
sS'discovery_flux_error'
p11
g3
(g5
S'+\xfb\xb9R\xa5x\xae<'
tRp12
s.