(dp1
S'sensitivity_flux_error'
p2
cnumpy.core.multiarray
scalar
p3
(cnumpy
dtype
p4
(S'f8'
I0
I1
tRp5
(I3
S'<'
NNNI-1
I-1
I0
tbS'(\xb7j$\x85\xb5\x18='
tRp6
sS'sensitivity_flux'
p7
g3
(g5
S'\x89H\xc0\x99\xec\xaeL='
tRp8
sS'discovery_flux'
p9
g3
(g5
S'\x89\x02\xb2\xfdt\x90a='
tRp10
sS'discovery_flux_error'
p11
g3
(g5
S'8\x8b\xc9\xe4\xc5\xba\x14='
tRp12
s.