(dp1
S'sensitivity_flux_error'
p2
cnumpy.core.multiarray
scalar
p3
(cnumpy
dtype
p4
(S'f8'
I0
I1
tRp5
(I3
S'<'
NNNI-1
I-1
I0
tbS'\x8a\xd2\xde\xc6\xd0\x83\xb0<'
tRp6
sS'sensitivity_flux'
p7
g3
(g5
S'\xcck\x18\x957W\xe6<'
tRp8
sS'discovery_flux'
p9
g3
(g5
S'\x81\x93\x1d\xb4\xcb\xa1\xf8<'
tRp10
sS'discovery_flux_error'
p11
g3
(g5
S'\x90\x1e\x85Sfi\xaa<'
tRp12
s.