(dp1
S'sensitivity_flux_error'
p2
cnumpy.core.multiarray
scalar
p3
(cnumpy
dtype
p4
(S'f8'
I0
I1
tRp5
(I3
S'<'
NNNI-1
I-1
I0
tbS'\x8e\xa3@\xe9\xcb\x91\x07='
tRp6
sS'sensitivity_flux'
p7
g3
(g5
S'G\x1aI5\x19/8='
tRp8
sS'discovery_flux'
p9
g3
(g5
S'n\xa2\xc4\xb0\x04\xcbM='
tRp10
sS'discovery_flux_error'
p11
g3
(g5
S'\xc3\xf2\xa4\xc1\x89d\x04='
tRp12
s.