(dp1
S'sensitivity_flux_error'
p2
cnumpy.core.multiarray
scalar
p3
(cnumpy
dtype
p4
(S'f8'
I0
I1
tRp5
(I3
S'<'
NNNI-1
I-1
I0
tbS'F\xfcuO\xe1\xed\xb3<'
tRp6
sS'sensitivity_flux'
p7
g3
(g5
S'\xd3\xed:\xd03\xeb\xe5<'
tRp8
sS'discovery_flux'
p9
g3
(g5
S'~\xd5\xf7\x18\ro\xfd<'
tRp10
sS'discovery_flux_error'
p11
g3
(g5
S'h_U\x8b\xca\x96\xac<'
tRp12
s.