(dp1
S'sensitivity_flux_error'
p2
cnumpy.core.multiarray
scalar
p3
(cnumpy
dtype
p4
(S'f8'
I0
I1
tRp5
(I3
S'<'
NNNI-1
I-1
I0
tbS'-\xed\xa9\xa6\xf5\n\xb2<'
tRp6
sS'sensitivity_flux'
p7
g3
(g5
S'\xee\xbe\x14B4,\xe8<'
tRp8
sS'discovery_flux'
p9
g3
(g5
S'\xfc\xce\xcf8\xea\xab\xf9<'
tRp10
sS'discovery_flux_error'
p11
g3
(g5
S'\xa7\x94\xe2\xe3J]\xae<'
tRp12
s.