(dp1
S'sensitivity_flux_error'
p2
cnumpy.core.multiarray
scalar
p3
(cnumpy
dtype
p4
(S'f8'
I0
I1
tRp5
(I3
S'<'
NNNI-1
I-1
I0
tbS'\xd2\x9d\xb5.<\xb0\xb8<'
tRp6
sS'sensitivity_flux'
p7
g3
(g5
S'M\x9dF\xa4\x14\xad\xf2<'
tRp8
sS'discovery_flux'
p9
g3
(g5
S'<\xf3A\xb0\x94$\xfd<'
tRp10
sS'discovery_flux_error'
p11
g3
(g5
S'\x0f\x83?\x11\x1al\xb2<'
tRp12
s.