(dp1
S'sensitivity_flux_error'
p2
cnumpy.core.multiarray
scalar
p3
(cnumpy
dtype
p4
(S'f8'
I0
I1
tRp5
(I3
S'<'
NNNI-1
I-1
I0
tbS'C\x04K\xdc\x9f\x12\xb3<'
tRp6
sS'sensitivity_flux'
p7
g3
(g5
S'\xbf\x1d\xe6\xe4\xdd\xaf\xe7<'
tRp8
sS'discovery_flux'
p9
g3
(g5
S'\x99\n\x1c\xa7Td\xfd<'
tRp10
sS'discovery_flux_error'
p11
g3
(g5
S'\x80\xf8\n\x8d\xc3&\xb1<'
tRp12
s.