(dp1
S'sensitivity_flux_error'
p2
cnumpy.core.multiarray
scalar
p3
(cnumpy
dtype
p4
(S'f8'
I0
I1
tRp5
(I3
S'<'
NNNI-1
I-1
I0
tbS'z\xe5\xe7!S\xd6\xb3<'
tRp6
sS'sensitivity_flux'
p7
g3
(g5
S'LvF2\xc3!\xe6<'
tRp8
sS'discovery_flux'
p9
g3
(g5
S'\xd3I2F\x18\x90\xfa<'
tRp10
sS'discovery_flux_error'
p11
g3
(g5
S'{@)\xff\xd5\xd0\xaf<'
tRp12
s.