(dp1
S'sensitivity_flux_error'
p2
cnumpy.core.multiarray
scalar
p3
(cnumpy
dtype
p4
(S'f8'
I0
I1
tRp5
(I3
S'<'
NNNI-1
I-1
I0
tbS"\xc1\xc7\xc4'*\xbc\x14="
tRp6
sS'sensitivity_flux'
p7
g3
(g5
S'\x92\xc2\xdcD\x0c\x1cJ='
tRp8
sS'discovery_flux'
p9
g3
(g5
S'\x7f7\xee\x1e\xf6\xd0Y='
tRp10
sS'discovery_flux_error'
p11
g3
(g5
S'G\\LfF.\x13='
tRp12
s.