(dp1
S'sensitivity_flux_error'
p2
cnumpy.core.multiarray
scalar
p3
(cnumpy
dtype
p4
(S'f8'
I0
I1
tRp5
(I3
S'<'
NNNI-1
I-1
I0
tbS'\xc7\x81\xbe\x90\x97\xb5\xb0<'
tRp6
sS'sensitivity_flux'
p7
g3
(g5
S'\x0fe\x99\x96\xa9\xe0\xe5<'
tRp8
sS'discovery_flux'
p9
g3
(g5
S'f\x96>\\\x8a)\xfc<'
tRp10
sS'discovery_flux_error'
p11
g3
(g5
S's\xba\x8f\xc0\xe4\xde\xac<'
tRp12
s.