(dp1
S'sensitivity_flux_error'
p2
cnumpy.core.multiarray
scalar
p3
(cnumpy
dtype
p4
(S'f8'
I0
I1
tRp5
(I3
S'<'
NNNI-1
I-1
I0
tbS'\x9f\x16(\x18d\xa8 ='
tRp6
sS'sensitivity_flux'
p7
g3
(g5
S'%\xc9\xb8\xcf\x88\x15T='
tRp8
sS'discovery_flux'
p9
g3
(g5
S'\xed%\x1e\x0b\x14Xd='
tRp10
sS'discovery_flux_error'
p11
g3
(g5
S'\x98p\xcb\xa5\x96\x94\x19='
tRp12
s.