(dp1
S'sensitivity_flux_error'
p2
cnumpy.core.multiarray
scalar
p3
(cnumpy
dtype
p4
(S'f8'
I0
I1
tRp5
(I3
S'<'
NNNI-1
I-1
I0
tbS'u\x16,\xf0A\xec\x16='
tRp6
sS'sensitivity_flux'
p7
g3
(g5
S'\x90\xc0c\xdd\xbd\xbbI='
tRp8
sS'discovery_flux'
p9
g3
(g5
S'0\xe0\xa8\xa6\x1b\x01`='
tRp10
sS'discovery_flux_error'
p11
g3
(g5
S'\xbd0j\xe7\xf7\xf2\x12='
tRp12
s.