(dp1
S'sensitivity_flux_error'
p2
cnumpy.core.multiarray
scalar
p3
(cnumpy
dtype
p4
(S'f8'
I0
I1
tRp5
(I3
S'<'
NNNI-1
I-1
I0
tbS'\xa4\x83\x82\xb3\x03\x17\xb6<'
tRp6
sS'sensitivity_flux'
p7
g3
(g5
S'|\xc8\xb2\xa9\xab\xbe\xe8<'
tRp8
sS'discovery_flux'
p9
g3
(g5
S'uW\xa1~\xa9\xdb\xfc<'
tRp10
sS'discovery_flux_error'
p11
g3
(g5
S'`\x94)yE\x88\xb0<'
tRp12
s.