(dp1
S'sensitivity_flux_error'
p2
cnumpy.core.multiarray
scalar
p3
(cnumpy
dtype
p4
(S'f8'
I0
I1
tRp5
(I3
S'<'
NNNI-1
I-1
I0
tbS'\xc7\x0e\xc6`\x86F\xaf<'
tRp6
sS'sensitivity_flux'
p7
g3
(g5
S'`_\x05K\xfd \xe4<'
tRp8
sS'discovery_flux'
p9
g3
(g5
S'Y3\xceE\xe1\xfd\xfe<'
tRp10
sS'discovery_flux_error'
p11
g3
(g5
S'\xa31/\xdc\xe9\x18\xae<'
tRp12
s.