(dp1
S'sensitivity_flux_error'
p2
cnumpy.core.multiarray
scalar
p3
(cnumpy
dtype
p4
(S'f8'
I0
I1
tRp5
(I3
S'<'
NNNI-1
I-1
I0
tbS'\xfb\xa4\xf5\x83\xe2p\xb3<'
tRp6
sS'sensitivity_flux'
p7
g3
(g5
S'\xff\x17\xfai\xf2\xef\xe7<'
tRp8
sS'discovery_flux'
p9
g3
(g5
S'\x17\xb4e\xff+\xb2\xf9<'
tRp10
sS'discovery_flux_error'
p11
g3
(g5
S'\x82rZ\x99g*\xad<'
tRp12
s.