(dp1
S'sensitivity_flux_error'
p2
cnumpy.core.multiarray
scalar
p3
(cnumpy
dtype
p4
(S'f8'
I0
I1
tRp5
(I3
S'<'
NNNI-1
I-1
I0
tbS'x\x80VB\xc4\xaa\x1d='
tRp6
sS'sensitivity_flux'
p7
g3
(g5
S'D\xa2\xd6 Z\x16P='
tRp8
sS'discovery_flux'
p9
g3
(g5
S'T\xb9 \x02\x05\x1fd='
tRp10
sS'discovery_flux_error'
p11
g3
(g5
S'U\x9b\x8bf\x11\xf1\x1b='
tRp12
s.