(dp1
S'sensitivity_flux_error'
p2
cnumpy.core.multiarray
scalar
p3
(cnumpy
dtype
p4
(S'f8'
I0
I1
tRp5
(I3
S'<'
NNNI-1
I-1
I0
tbS'\xd651\x86P\x97\x14='
tRp6
sS'sensitivity_flux'
p7
g3
(g5
S'\xc1\x9d\xe2\x14\xb1\x89G='
tRp8
sS'discovery_flux'
p9
g3
(g5
S'\xe4\xd0\x03p\x0ca^='
tRp10
sS'discovery_flux_error'
p11
g3
(g5
S"'\xde?N\xd5F\x10="
tRp12
s.