(dp1
S'sensitivity_flux_error'
p2
cnumpy.core.multiarray
scalar
p3
(cnumpy
dtype
p4
(S'f8'
I0
I1
tRp5
(I3
S'<'
NNNI-1
I-1
I0
tbS'!\x9e\x01\xffg\x81\x10='
tRp6
sS'sensitivity_flux'
p7
g3
(g5
S'\xb1Mq\xd2T\x99B='
tRp8
sS'discovery_flux'
p9
g3
(g5
S'\x89F\xe6T\x93\xdeW='
tRp10
sS'discovery_flux_error'
p11
g3
(g5
S'\xc1\xf4:\xce,\x1a\x0c='
tRp12
s.