(dp1
S'sensitivity_flux_error'
p2
cnumpy.core.multiarray
scalar
p3
(cnumpy
dtype
p4
(S'f8'
I0
I1
tRp5
(I3
S'<'
NNNI-1
I-1
I0
tbS'\xdd\x86\xdf{\xac\x15\xb1<'
tRp6
sS'sensitivity_flux'
p7
g3
(g5
S'(|\x88\x8dHs\xe4<'
tRp8
sS'discovery_flux'
p9
g3
(g5
S'\xb51\xb9\x12\xb3\x85\xf9<'
tRp10
sS'discovery_flux_error'
p11
g3
(g5
S'=\x98\xb3\xb9\xce9\xac<'
tRp12
s.